target datalayout = "e-m:e-p270:32:32-p271:32:32-p272:64:64-i64:64-i128:128-f80:128-n8:16:32:64-S128"
target triple = "x86_64-pc-linux-gnu"

%struct.UConverterSharedData = type { i32, i32, ptr, ptr, i8, i8, ptr, i32, %struct.UConverterMBCSTable }
%struct.UConverterMBCSTable = type { i8, i8, i8, i32, ptr, ptr, ptr, ptr, ptr, ptr, [64 x i16], ptr, ptr, i32, i8, i8, i8, i16, i32, ptr, ptr, ptr, ptr }
%struct.UConverterLoadArgs = type { i32, i32, i8, i8, i16, i32, ptr, ptr, ptr }

@.str.1 = private unnamed_addr constant [1 x i8] zeroinitializer, align 1

; Function Attrs: mustprogress uwtable
define ptr @ucnv_createAlgorithmicConverter_77(ptr noundef %0, i32 noundef %1, ptr noundef %2, i32 noundef %3, ptr noundef %4) #0 {
  %6 = alloca ptr, align 8
  %7 = alloca ptr, align 8
  %8 = alloca i32, align 4
  %9 = alloca ptr, align 8
  %10 = alloca i32, align 4
  %11 = alloca ptr, align 8
  %12 = alloca ptr, align 8
  %13 = alloca ptr, align 8
  %14 = alloca %struct.UConverterLoadArgs, align 8
  %15 = alloca i32, align 4
  store ptr %0, ptr %7, align 8, !tbaa !56
  store i32 %1, ptr %8, align 4, !tbaa !78
  store ptr %2, ptr %9, align 8, !tbaa !31
  store i32 %3, ptr %10, align 4, !tbaa !46
  store ptr %4, ptr %11, align 8, !tbaa !8
  call void @llvm.lifetime.start.p0(i64 8, ptr %12) #12
  call void @llvm.lifetime.start.p0(i64 8, ptr %13) #12
  call void @llvm.lifetime.start.p0(i64 40, ptr %14) #12
  call void @llvm.memset.p0.i64(ptr align 8 %14, i8 0, i64 40, i1 false)
  %16 = getelementptr inbounds %struct.UConverterLoadArgs, ptr %14, i32 0, i32 0
  store i32 40, ptr %16, align 8
  %17 = load i32, ptr %8, align 4, !tbaa !78
  %18 = icmp slt i32 %17, 0
  br i1 %18, label %22, label %19

19:                                               ; preds = %5
  %20 = load i32, ptr %8, align 4, !tbaa !78
  %21 = icmp sle i32 34, %20
  br i1 %21, label %22, label %24

22:                                               ; preds = %19, %5
  %23 = load ptr, ptr %11, align 8, !tbaa !8
  store i32 1, ptr %23, align 4, !tbaa !9
  store ptr null, ptr %6, align 8
  store i32 1, ptr %15, align 4
  br label %49

24:                                               ; preds = %19
  %25 = load i32, ptr %8, align 4, !tbaa !78
  %26 = sext i32 %25 to i64
  %27 = getelementptr inbounds [34 x ptr], ptr @_ZL13converterData, i64 0, i64 %26
  %28 = load ptr, ptr %27, align 8, !tbaa !18
  store ptr %28, ptr %13, align 8, !tbaa !18
  %29 = load ptr, ptr %13, align 8, !tbaa !18
  %30 = icmp eq ptr %29, null
  br i1 %30, label %36, label %31

31:                                               ; preds = %24
  %32 = load ptr, ptr %13, align 8, !tbaa !18
  %33 = getelementptr inbounds nuw %struct.UConverterSharedData, ptr %32, i32 0, i32 5
  %34 = load i8, ptr %33, align 1, !tbaa !39
  %35 = icmp ne i8 %34, 0
  br i1 %35, label %36, label %38

36:                                               ; preds = %31, %24
  %37 = load ptr, ptr %11, align 8, !tbaa !8
  store i32 1, ptr %37, align 4, !tbaa !9
  store ptr null, ptr %6, align 8
  store i32 1, ptr %15, align 4
  br label %49

38:                                               ; preds = %31
  %39 = getelementptr inbounds nuw %struct.UConverterLoadArgs, ptr %14, i32 0, i32 7
  store ptr @.str.1, ptr %39, align 8, !tbaa !17
  %40 = load i32, ptr %10, align 4, !tbaa !46
  %41 = getelementptr inbounds nuw %struct.UConverterLoadArgs, ptr %14, i32 0, i32 5
  store i32 %40, ptr %41, align 4, !tbaa !44
  %42 = load ptr, ptr %9, align 8, !tbaa !31
  %43 = getelementptr inbounds nuw %struct.UConverterLoadArgs, ptr %14, i32 0, i32 8
  store ptr %42, ptr %43, align 8, !tbaa !43
  %44 = load ptr, ptr %7, align 8, !tbaa !56
  %45 = load ptr, ptr %13, align 8, !tbaa !18
  %46 = load ptr, ptr %11, align 8, !tbaa !8
  %47 = call ptr @ucnv_createConverterFromSharedData_77(ptr noundef %44, ptr noundef %45, ptr noundef %14, ptr noundef %46)
  store ptr %47, ptr %12, align 8, !tbaa !56
  %48 = load ptr, ptr %12, align 8, !tbaa !56
  store ptr %48, ptr %6, align 8
  store i32 1, ptr %15, align 4
  br label %49

49:                                               ; preds = %38, %36, %22
  call void @llvm.lifetime.end.p0(i64 40, ptr %14) #12
  call void @llvm.lifetime.end.p0(i64 8, ptr %13) #12
  call void @llvm.lifetime.end.p0(i64 8, ptr %12) #12
  %50 = load ptr, ptr %6, align 8
  ret ptr %50
}