; Function Attrs: mustprogress uwtable
define noundef ptr @ucnv_createAlgorithmicConverter_77(ptr noundef %0, i32 noundef %1, ptr noundef %2, i32 noundef %3, ptr noundef %4) local_unnamed_addr #0 {
  %6 = alloca %struct.UConverterLoadArgs, align 8
  call void @llvm.lifetime.start.p0(i64 40, ptr nonnull %6) #11
  call void @llvm.memset.p0.i64(ptr noundef nonnull align 8 dereferenceable(40) %6, i8 0, i64 24, i1 false)
  store i32 40, ptr %6, align 8
  %or.cond = icmp ugt i32 %1, 33
  br i1 %or.cond, label %7, label %8

7:                                                ; preds = %5
  store i32 1, ptr %4, align 4, !tbaa !13
  br label %23

8:                                                ; preds = %5
  %9 = zext nneg i32 %1 to i64
  %10 = getelementptr inbounds nuw [34 x ptr], ptr @_ZL13converterData, i64 0, i64 %9
  %11 = load ptr, ptr %10, align 8, !tbaa !33
  %12 = shl nuw nsw i64 1, %9
  %13 = and i64 %12, 515
  %.not = icmp eq i64 %13, 0
  br i1 %.not, label %14, label %17

14:                                               ; preds = %8
  %15 = getelementptr inbounds nuw i8, ptr %11, i64 25
  %16 = load i8, ptr %15, align 1, !tbaa !34
  %.not16 = icmp eq i8 %16, 0
  br i1 %.not16, label %18, label %17

17:                                               ; preds = %14, %8
  store i32 1, ptr %4, align 4, !tbaa !13
  br label %23

18:                                               ; preds = %14
  %19 = getelementptr inbounds nuw i8, ptr %6, i64 24
  store ptr @.str.1, ptr %19, align 8, !tbaa !20
  %20 = getelementptr inbounds nuw i8, ptr %6, i64 12
  store i32 %3, ptr %20, align 4, !tbaa !48
  %21 = getelementptr inbounds nuw i8, ptr %6, i64 32
  store ptr %2, ptr %21, align 8, !tbaa !47
  %22 = call ptr @ucnv_createConverterFromSharedData_77(ptr noundef %0, ptr noundef nonnull %11, ptr noundef nonnull %6, ptr noundef %4)
  br label %23

23:                                               ; preds = %18, %17, %7
  %.0 = phi ptr [ null, %7 ], [ null, %17 ], [ %22, %18 ]
  call void @llvm.lifetime.end.p0(i64 40, ptr nonnull %6) #11
  ret ptr %.0
}